target datalayout = "e-m:e-p270:32:32-p271:32:32-p272:64:64-i64:64-i128:128-f80:128-n8:16:32:64-S128"
target triple = "x86_64-unknown-linux-gnu"

@_ZZL13write_paddingILc32EERN4llvh11raw_ostreamES2_jE5Chars = internal constant [80 x i8] c"                                                                                ", align 16

; Function Attrs: mustprogress nounwind uwtable
define linkonce_odr noundef nonnull align 4 dereferenceable(4) ptr @_ZSt3minIjERKT_S2_S2_(ptr noundef nonnull align 4 dereferenceable(4) %__a, ptr noundef nonnull align 4 dereferenceable(4) %__b) #0 comdat {
entry:
  %retval = alloca ptr, align 8
  %__a.addr = alloca ptr, align 8
  %__b.addr = alloca ptr, align 8
  store ptr %__a, ptr %__a.addr, align 8
  store ptr %__b, ptr %__b.addr, align 8
  %0 = load ptr, ptr %__b.addr, align 8
  %1 = load i32, ptr %0, align 4
  %2 = load ptr, ptr %__a.addr, align 8
  %3 = load i32, ptr %2, align 4
  %cmp = icmp ult i32 %1, %3
  br i1 %cmp, label %if.then, label %if.end

if.then:                                          ; preds = %entry
  %4 = load ptr, ptr %__b.addr, align 8
  store ptr %4, ptr %retval, align 8
  br label %return

if.end:                                           ; preds = %entry
  %5 = load ptr, ptr %__a.addr, align 8
  store ptr %5, ptr %retval, align 8
  br label %return

return:                                           ; preds = %if.end, %if.then
  %6 = load ptr, ptr %retval, align 8
  ret ptr %6
}

; Function Attrs: mustprogress nounwind uwtable
define linkonce_odr hidden noundef i64 @_ZN4llvh14array_lengthofIKcLm80EEEmRAT0__T_(ptr noundef nonnull align 1 dereferenceable(80) %0) #0 comdat {
entry:
  %.addr = alloca ptr, align 8
  store ptr %0, ptr %.addr, align 8
  ret i64 80
}

; Function Attrs: mustprogress nounwind uwtable
define internal noundef nonnull align 8 dereferenceable(36) ptr @_ZL13write_paddingILc32EERN4llvh11raw_ostreamES2_j(ptr noundef nonnull align 8 dereferenceable(36) %OS, i32 noundef %NumChars) #0 {
entry:
  %retval = alloca ptr, align 8
  %OS.addr = alloca ptr, align 8
  %NumChars.addr = alloca i32, align 4
  %NumToWrite = alloca i32, align 4
  %ref.tmp = alloca i32, align 4
  store ptr %OS, ptr %OS.addr, align 8
  store i32 %NumChars, ptr %NumChars.addr, align 4
  %0 = load i32, ptr %NumChars.addr, align 4
  %conv = zext i32 %0 to i64
  %call = call noundef i64 @_ZN4llvh14array_lengthofIKcLm80EEEmRAT0__T_(ptr noundef nonnull align 1 dereferenceable(80) @_ZZL13write_paddingILc32EERN4llvh11raw_ostreamES2_jE5Chars)
  %cmp = icmp ult i64 %conv, %call
  br i1 %cmp, label %if.then, label %if.end

if.then:                                          ; preds = %entry
  %1 = load ptr, ptr %OS.addr, align 8
  %2 = load i32, ptr %NumChars.addr, align 4
  %conv1 = zext i32 %2 to i64
  %call2 = call noundef nonnull align 8 dereferenceable(36) ptr @_ZN4llvh11raw_ostream5writeEPKcm(ptr noundef nonnull align 8 dereferenceable(36) %1, ptr noundef @_ZZL13write_paddingILc32EERN4llvh11raw_ostreamES2_jE5Chars, i64 noundef %conv1)
  store ptr %call2, ptr %retval, align 8
  br label %return

if.end:                                           ; preds = %entry
  br label %while.cond

while.cond:                                       ; preds = %while.body, %if.end
  %3 = load i32, ptr %NumChars.addr, align 4
  %tobool = icmp ne i32 %3, 0
  br i1 %tobool, label %while.body, label %while.end

while.body:                                       ; preds = %while.cond
  %call3 = call noundef i64 @_ZN4llvh14array_lengthofIKcLm80EEEmRAT0__T_(ptr noundef nonnull align 1 dereferenceable(80) @_ZZL13write_paddingILc32EERN4llvh11raw_ostreamES2_jE5Chars)
  %conv4 = trunc i64 %call3 to i32
  %sub = sub i32 %conv4, 1
  store i32 %sub, ptr %ref.tmp, align 4
  %call5 = call noundef nonnull align 4 dereferenceable(4) ptr @_ZSt3minIjERKT_S2_S2_(ptr noundef nonnull align 4 dereferenceable(4) %NumChars.addr, ptr noundef nonnull align 4 dereferenceable(4) %ref.tmp)
  %4 = load i32, ptr %call5, align 4
  store i32 %4, ptr %NumToWrite, align 4
  %5 = load ptr, ptr %OS.addr, align 8
  %6 = load i32, ptr %NumToWrite, align 4
  %conv6 = zext i32 %6 to i64
  %call7 = call noundef nonnull align 8 dereferenceable(36) ptr @_ZN4llvh11raw_ostream5writeEPKcm(ptr noundef nonnull align 8 dereferenceable(36) %5, ptr noundef @_ZZL13write_paddingILc32EERN4llvh11raw_ostreamES2_jE5Chars, i64 noundef %conv6)
  %7 = load i32, ptr %NumToWrite, align 4
  %8 = load i32, ptr %NumChars.addr, align 4
  %sub8 = sub i32 %8, %7
  store i32 %sub8, ptr %NumChars.addr, align 4
  br label %while.cond, !llvm.loop !10

while.end:                                        ; preds = %while.cond
  %9 = load ptr, ptr %OS.addr, align 8
  store ptr %9, ptr %retval, align 8
  br label %return

return:                                           ; preds = %while.end, %if.then
  %10 = load ptr, ptr %retval, align 8
  ret ptr %10
}

; Function Attrs: mustprogress nounwind uwtable
define hidden noundef nonnull align 8 dereferenceable(36) ptr @_ZN4llvh11raw_ostream6indentEj(ptr noundef nonnull align 8 dereferenceable(36) %this, i32 noundef %NumSpaces) #0 align 2 {
entry:
  %this.addr = alloca ptr, align 8
  %NumSpaces.addr = alloca i32, align 4
  store ptr %this, ptr %this.addr, align 8
  store i32 %NumSpaces, ptr %NumSpaces.addr, align 4
  %this1 = load ptr, ptr %this.addr, align 8
  %0 = load i32, ptr %NumSpaces.addr, align 4
  %call = call noundef nonnull align 8 dereferenceable(36) ptr @_ZL13write_paddingILc32EERN4llvh11raw_ostreamES2_j(ptr noundef nonnull align 8 dereferenceable(36) %this1, i32 noundef %0)
  ret ptr %call
}