; Function Attrs: mustprogress nounwind uwtable
define hidden noundef nonnull align 8 dereferenceable(36) ptr @_ZN4llvh11raw_ostream6indentEj(ptr noundef nonnull returned align 8 dereferenceable(36) %this, i32 noundef %NumSpaces) local_unnamed_addr #0 align 2 {
entry:
  %cmp.i = icmp ult i32 %NumSpaces, 80
  br i1 %cmp.i, label %if.then.i, label %while.body.i

if.then.i:                                        ; preds = %entry
  %conv.i = zext nneg i32 %NumSpaces to i64
  %call2.i = tail call noundef nonnull align 8 dereferenceable(36) ptr @_ZN4llvh11raw_ostream5writeEPKcm(ptr noundef nonnull align 8 dereferenceable(36) %this, ptr noundef nonnull @_ZZL13write_paddingILc32EERN4llvh11raw_ostreamES2_jE5Chars, i64 noundef %conv.i)
  br label %_ZL13write_paddingILc32EERN4llvh11raw_ostreamES2_j.exit

while.body.i:                                     ; preds = %entry, %while.body.i
  %NumChars.addr.09.i = phi i32 [ %sub8.i, %while.body.i ], [ %NumSpaces, %entry ]
  %.sroa.speculated.i = tail call i32 @llvm.umin.i32(i32 %NumChars.addr.09.i, i32 79)
  %conv6.i = zext nneg i32 %.sroa.speculated.i to i64
  %call7.i = tail call noundef nonnull align 8 dereferenceable(36) ptr @_ZN4llvh11raw_ostream5writeEPKcm(ptr noundef nonnull align 8 dereferenceable(36) %this, ptr noundef nonnull @_ZZL13write_paddingILc32EERN4llvh11raw_ostreamES2_jE5Chars, i64 noundef %conv6.i)
  %sub8.i = sub i32 %NumChars.addr.09.i, %.sroa.speculated.i
  %tobool.not.i = icmp eq i32 %sub8.i, 0
  br i1 %tobool.not.i, label %_ZL13write_paddingILc32EERN4llvh11raw_ostreamES2_j.exit, label %while.body.i, !llvm.loop !10

_ZL13write_paddingILc32EERN4llvh11raw_ostreamES2_j.exit: ; preds = %while.body.i, %if.then.i
  ret ptr %this
}